; Function Attrs: nounwind uwtable
define ptr @l___private_Lean_ResolveName_0__Lean_resolveGlobalConstCore___at_Lean_Elab_Tactic_elabGrindPattern___spec__3(ptr noundef %0, ptr noundef %1, ptr noundef %2, ptr noundef %3, ptr noundef %4, ptr noundef %5, ptr noundef %6, ptr noundef %7) local_unnamed_addr #0 {
  %9 = ptrtoint ptr %5 to i64
  %10 = and i64 %9, 1
  %.not = icmp eq i64 %10, 0
  br i1 %.not, label %11, label %lean_inc.exit29

11:                                               ; preds = %8
  %.val.i = load i32, ptr %5, align 4, !tbaa !8
  %12 = icmp sgt i32 %.val.i, 0
  br i1 %12, label %13, label %15, !prof !11

13:                                               ; preds = %11
  %14 = add nuw i32 %.val.i, 1
  store i32 %14, ptr %5, align 4, !tbaa !8
  br label %lean_inc.exit29

15:                                               ; preds = %11
  %.not.i32 = icmp eq i32 %.val.i, 0
  br i1 %.not.i32, label %lean_inc.exit29, label %16

16:                                               ; preds = %15
  tail call void @lean_inc_ref_cold(ptr noundef nonnull %5) #5
  br label %lean_inc.exit29

lean_inc.exit29:                                  ; preds = %16, %15, %13, %8
  %17 = ptrtoint ptr %0 to i64
  %18 = and i64 %17, 1
  %.not42 = icmp eq i64 %18, 0
  br i1 %.not42, label %19, label %lean_inc.exit28

19:                                               ; preds = %lean_inc.exit29
  %.val.i33 = load i32, ptr %0, align 4, !tbaa !8
  %20 = icmp sgt i32 %.val.i33, 0
  br i1 %20, label %21, label %23, !prof !11

21:                                               ; preds = %19
  %22 = add nuw i32 %.val.i33, 1
  store i32 %22, ptr %0, align 4, !tbaa !8
  br label %lean_inc.exit28

23:                                               ; preds = %19
  %.not.i34 = icmp eq i32 %.val.i33, 0
  br i1 %.not.i34, label %lean_inc.exit28, label %24

24:                                               ; preds = %23
  tail call void @lean_inc_ref_cold(ptr noundef nonnull %0) #5
  br label %lean_inc.exit28

lean_inc.exit28:                                  ; preds = %24, %23, %21, %lean_inc.exit29
  %25 = tail call ptr @l_Lean_resolveGlobalName___at_Lean_Elab_Term_isLocalIdent_x3f___spec__13(ptr noundef %0, ptr noundef %1, ptr noundef %2, ptr noundef %3, ptr noundef %4, ptr noundef %5, ptr noundef %6, ptr noundef %7) #5
  %26 = getelementptr inbounds nuw i8, ptr %25, i64 8
  %27 = load ptr, ptr %26, align 8, !tbaa !4
  %28 = ptrtoint ptr %27 to i64
  %29 = and i64 %28, 1
  %.not43 = icmp eq i64 %29, 0
  br i1 %.not43, label %30, label %lean_inc.exit27

30:                                               ; preds = %lean_inc.exit28
  %.val.i36 = load i32, ptr %27, align 4, !tbaa !8
  %31 = icmp sgt i32 %.val.i36, 0
  br i1 %31, label %32, label %34, !prof !11

32:                                               ; preds = %30
  %33 = add nuw i32 %.val.i36, 1
  store i32 %33, ptr %27, align 4, !tbaa !8
  br label %lean_inc.exit27

34:                                               ; preds = %30
  %.not.i37 = icmp eq i32 %.val.i36, 0
  br i1 %.not.i37, label %lean_inc.exit27, label %35

35:                                               ; preds = %34
  tail call void @lean_inc_ref_cold(ptr noundef nonnull %27) #5
  br label %lean_inc.exit27

lean_inc.exit27:                                  ; preds = %35, %34, %32, %lean_inc.exit28
  %36 = getelementptr inbounds nuw i8, ptr %25, i64 16
  %37 = load ptr, ptr %36, align 8, !tbaa !4
  %38 = ptrtoint ptr %37 to i64
  %39 = and i64 %38, 1
  %.not44 = icmp eq i64 %39, 0
  br i1 %.not44, label %40, label %lean_inc.exit

40:                                               ; preds = %lean_inc.exit27
  %.val.i39 = load i32, ptr %37, align 4, !tbaa !8
  %41 = icmp sgt i32 %.val.i39, 0
  br i1 %41, label %42, label %44, !prof !11

42:                                               ; preds = %40
  %43 = add nuw i32 %.val.i39, 1
  store i32 %43, ptr %37, align 4, !tbaa !8
  br label %lean_inc.exit

44:                                               ; preds = %40
  %.not.i40 = icmp eq i32 %.val.i39, 0
  br i1 %.not.i40, label %lean_inc.exit, label %45

45:                                               ; preds = %44
  tail call void @lean_inc_ref_cold(ptr noundef nonnull %37) #5
  br label %lean_inc.exit

lean_inc.exit:                                    ; preds = %45, %44, %42, %lean_inc.exit27
  %46 = ptrtoint ptr %25 to i64
  %47 = and i64 %46, 1
  %.not45 = icmp eq i64 %47, 0
  br i1 %.not45, label %48, label %lean_dec.exit26

48:                                               ; preds = %lean_inc.exit
  %49 = load i32, ptr %25, align 4, !tbaa !8
  %50 = icmp sgt i32 %49, 1
  br i1 %50, label %51, label %53, !prof !11

51:                                               ; preds = %48
  %52 = add nsw i32 %49, -1
  store i32 %52, ptr %25, align 4, !tbaa !8
  br label %lean_dec.exit26

53:                                               ; preds = %48
  %.not.i = icmp eq i32 %49, 0
  br i1 %.not.i, label %lean_dec.exit26, label %54

54:                                               ; preds = %53
  tail call void @lean_dec_ref_cold(ptr noundef nonnull %25) #5
  br label %lean_dec.exit26

lean_dec.exit26:                                  ; preds = %54, %53, %51, %lean_inc.exit
  %55 = tail call ptr @l_Lean_filterFieldList___at_Lean_Elab_Tactic_elabGrindPattern___spec__4(ptr noundef %0, ptr noundef %27, ptr noundef %1, ptr noundef %2, ptr noundef %3, ptr noundef %4, ptr noundef %5, ptr noundef %6, ptr noundef %37)
  br i1 %.not, label %56, label %lean_dec.exit

56:                                               ; preds = %lean_dec.exit26
  %57 = load i32, ptr %5, align 4, !tbaa !8
  %58 = icmp sgt i32 %57, 1
  br i1 %58, label %59, label %61, !prof !11

59:                                               ; preds = %56
  %60 = add nsw i32 %57, -1
  store i32 %60, ptr %5, align 4, !tbaa !8
  br label %lean_dec.exit

61:                                               ; preds = %56
  %.not.i30 = icmp eq i32 %57, 0
  br i1 %.not.i30, label %lean_dec.exit, label %62

62:                                               ; preds = %61
  tail call void @lean_dec_ref_cold(ptr noundef nonnull %5) #5
  br label %lean_dec.exit

lean_dec.exit:                                    ; preds = %62, %61, %59, %lean_dec.exit26
  ret ptr %55
}